(dp0
Vproject_steps
p1
(lp2
VTutorial
p3
aVJSIntro
p4
aVDateTime
p5
aVStrings
p6
aVArrays
p7
aVObjects
p8
aVSerilization
p9
asVproject_name
p10
VJS_Intro
p11
sVproject_directory
p12
Vd:\u005cJSIntro
p13
sVlanguage
p14
Vjavascript
p15
sVproject_page
p16
Vhttp://mission-rnd.github.io/javascript-basics.htm
p17
sVproject_status
p18
I7
sVproject_gitrepo
p19
Vhttps://github.com/mission-rnd/mrnd-javascript
p20
sVproject_user
p21
Vjagan_peri
p22
sVproject_validator
p23
Vjasmine-node --junitreport --captureExceptions spec/tests/
p24
s.